; Function Attrs: nounwind uwtable
define dso_local noundef i64 @inet_server_addr(ptr noundef writeonly captures(none) %0) local_unnamed_addr #0 {
  %2 = alloca [1025 x i8], align 16
  %3 = load ptr, ptr @MyProcPort, align 8
  call void @llvm.lifetime.start.p0(i64 1025, ptr nonnull %2) #14
  %4 = icmp eq ptr %3, null
  br i1 %4, label %5, label %7

5:                                                ; preds = %1
  %6 = getelementptr inbounds nuw i8, ptr %0, i64 28
  store i8 1, ptr %6, align 4
  br label %26

7:                                                ; preds = %1
  %8 = getelementptr inbounds nuw i8, ptr %3, i64 16
  %9 = load i16, ptr %8, align 8
  switch i16 %9, label %10 [
    i16 2, label %12
    i16 10, label %12
  ]

10:                                               ; preds = %7
  %11 = getelementptr inbounds nuw i8, ptr %0, i64 28
  store i8 1, ptr %11, align 4
  br label %26

12:                                               ; preds = %7, %7
  store i8 0, ptr %2, align 16
  %13 = getelementptr inbounds nuw i8, ptr %3, i64 144
  %14 = load i32, ptr %13, align 8
  %15 = call i32 @pg_getnameinfo_all(ptr noundef nonnull %8, i32 noundef %14, ptr noundef nonnull %2, i32 noundef 1025, ptr noundef null, i32 noundef 0, i32 noundef 3) #14
  %.not = icmp eq i32 %15, 0
  br i1 %.not, label %18, label %16

16:                                               ; preds = %12
  %17 = getelementptr inbounds nuw i8, ptr %0, i64 28
  store i8 1, ptr %17, align 4
  br label %26

18:                                               ; preds = %12
  %19 = load i16, ptr %8, align 8
  %20 = icmp eq i16 %19, 10
  br i1 %20, label %21, label %clean_ipv6_addr.exit

21:                                               ; preds = %18
  %22 = call ptr @strchr(ptr noundef nonnull dereferenceable(1) %2, i32 noundef 37) #15
  %.not.i = icmp eq ptr %22, null
  br i1 %.not.i, label %clean_ipv6_addr.exit, label %23

23:                                               ; preds = %21
  store i8 0, ptr %22, align 1
  br label %clean_ipv6_addr.exit

clean_ipv6_addr.exit:                             ; preds = %18, %21, %23
  %24 = call fastcc ptr @network_in(ptr noundef nonnull %2, i1 noundef zeroext false, ptr noundef null)
  %25 = ptrtoint ptr %24 to i64
  br label %26

26:                                               ; preds = %clean_ipv6_addr.exit, %16, %10, %5
  %.0 = phi i64 [ 0, %5 ], [ 0, %10 ], [ 0, %16 ], [ %25, %clean_ipv6_addr.exit ]
  call void @llvm.lifetime.end.p0(i64 1025, ptr nonnull %2) #14
  ret i64 %.0
}